target datalayout = "e-m:e-p270:32:32-p271:32:32-p272:64:64-i64:64-i128:128-f80:128-n8:16:32:64-S128"
target triple = "x86_64-pc-linux-gnu"

%"struct.llvm::objcarc::RRInfo" = type <{ i8, i8, [6 x i8], ptr, %"class.llvm::SmallPtrSet", %"class.llvm::SmallPtrSet", i8, [7 x i8] }>
%"class.llvm::SmallPtrSet" = type { %"class.llvm::SmallPtrSetImpl.base", [2 x ptr] }
%"class.llvm::SmallPtrSetImpl.base" = type { %"class.llvm::SmallPtrSetImplBase.base" }
%"class.llvm::SmallPtrSetImplBase.base" = type <{ ptr, ptr, i32, i32, i32 }>
%"class.llvm::SmallPtrSetImplBase" = type <{ ptr, ptr, i32, i32, i32, [4 x i8] }>
%"class.llvm::objcarc::PtrState" = type { i8, i8, i8, [5 x i8], %"struct.llvm::objcarc::RRInfo" }

; Function Attrs: mustprogress nounwind uwtable
define linkonce_odr hidden noundef i32 @_ZNK4llvm19SmallPtrSetImplBase4sizeEv(ptr noundef nonnull align 8 dereferenceable(28) %0) #0 comdat align 2 {
  %2 = alloca ptr, align 8
  store ptr %0, ptr %2, align 8
  %3 = load ptr, ptr %2, align 8
  %4 = getelementptr inbounds nuw %"class.llvm::SmallPtrSetImplBase", ptr %3, i32 0, i32 3
  %5 = load i32, ptr %4, align 4
  %6 = getelementptr inbounds nuw %"class.llvm::SmallPtrSetImplBase", ptr %3, i32 0, i32 4
  %7 = load i32, ptr %6, align 8
  %8 = sub i32 %5, %7
  ret i32 %8
}

; Function Attrs: mustprogress nounwind uwtable
define linkonce_odr hidden noundef zeroext i1 @_ZNK4llvm19SmallPtrSetImplBase7isSmallEv(ptr noundef nonnull align 8 dereferenceable(28) %0) #0 comdat align 2 {
  %2 = alloca ptr, align 8
  store ptr %0, ptr %2, align 8
  %3 = load ptr, ptr %2, align 8
  %4 = getelementptr inbounds nuw %"class.llvm::SmallPtrSetImplBase", ptr %3, i32 0, i32 1
  %5 = load ptr, ptr %4, align 8
  %6 = getelementptr inbounds nuw %"class.llvm::SmallPtrSetImplBase", ptr %3, i32 0, i32 0
  %7 = load ptr, ptr %6, align 8
  %8 = icmp eq ptr %5, %7
  ret i1 %8
}

; Function Attrs: mustprogress nounwind uwtable
define linkonce_odr hidden void @_ZN4llvm14DebugEpochBase14incrementEpochEv(ptr noundef nonnull align 1 dereferenceable(1) %0) #0 comdat align 2 {
  %2 = alloca ptr, align 8
  store ptr %0, ptr %2, align 8
  ret void
}

; Function Attrs: mustprogress nounwind uwtable
define linkonce_odr hidden void @_ZN4llvm19SmallPtrSetImplBase5clearEv(ptr noundef nonnull align 8 dereferenceable(28) %0) #0 comdat align 2 {
  %2 = alloca ptr, align 8
  store ptr %0, ptr %2, align 8
  %3 = load ptr, ptr %2, align 8
  call void @_ZN4llvm14DebugEpochBase14incrementEpochEv(ptr noundef nonnull align 1 dereferenceable(1) %3)
  %4 = call noundef zeroext i1 @_ZNK4llvm19SmallPtrSetImplBase7isSmallEv(ptr noundef nonnull align 8 dereferenceable(28) %3)
  br i1 %4, label %23, label %5

5:                                                ; preds = %1
  %6 = call noundef i32 @_ZNK4llvm19SmallPtrSetImplBase4sizeEv(ptr noundef nonnull align 8 dereferenceable(28) %3)
  %7 = mul i32 %6, 4
  %8 = getelementptr inbounds nuw %"class.llvm::SmallPtrSetImplBase", ptr %3, i32 0, i32 2
  %9 = load i32, ptr %8, align 8
  %10 = icmp ult i32 %7, %9
  br i1 %10, label %11, label %16

11:                                               ; preds = %5
  %12 = getelementptr inbounds nuw %"class.llvm::SmallPtrSetImplBase", ptr %3, i32 0, i32 2
  %13 = load i32, ptr %12, align 8
  %14 = icmp ugt i32 %13, 32
  br i1 %14, label %15, label %16

15:                                               ; preds = %11
  call void @_ZN4llvm19SmallPtrSetImplBase16shrink_and_clearEv(ptr noundef nonnull align 8 dereferenceable(28) %3)
  br label %26

16:                                               ; preds = %11, %5
  %17 = getelementptr inbounds nuw %"class.llvm::SmallPtrSetImplBase", ptr %3, i32 0, i32 1
  %18 = load ptr, ptr %17, align 8
  %19 = getelementptr inbounds nuw %"class.llvm::SmallPtrSetImplBase", ptr %3, i32 0, i32 2
  %20 = load i32, ptr %19, align 8
  %21 = zext i32 %20 to i64
  %22 = mul i64 %21, 8
  call void @llvm.memset.p0.i64(ptr align 8 %18, i8 -1, i64 %22, i1 false)
  br label %23

23:                                               ; preds = %16, %1
  %24 = getelementptr inbounds nuw %"class.llvm::SmallPtrSetImplBase", ptr %3, i32 0, i32 3
  store i32 0, ptr %24, align 4
  %25 = getelementptr inbounds nuw %"class.llvm::SmallPtrSetImplBase", ptr %3, i32 0, i32 4
  store i32 0, ptr %25, align 8
  br label %26

26:                                               ; preds = %23, %15
  ret void
}

; Function Attrs: mustprogress nounwind uwtable
define linkonce_odr hidden void @_ZN4llvm7objcarc8PtrState21ClearReverseInsertPtsEv(ptr noundef nonnull align 8 dereferenceable(128) %0) #0 comdat align 2 {
  %2 = alloca ptr, align 8
  store ptr %0, ptr %2, align 8
  %3 = load ptr, ptr %2, align 8
  %4 = getelementptr inbounds nuw %"class.llvm::objcarc::PtrState", ptr %3, i32 0, i32 4
  %5 = getelementptr inbounds nuw %"struct.llvm::objcarc::RRInfo", ptr %4, i32 0, i32 5
  call void @_ZN4llvm19SmallPtrSetImplBase5clearEv(ptr noundef nonnull align 8 dereferenceable(28) %5)
  ret void
}

; Function Attrs: mustprogress nounwind uwtable
define linkonce_odr hidden noundef zeroext i1 @_ZNK4llvm7objcarc8PtrState27IsTrackingImpreciseReleasesEv(ptr noundef nonnull align 8 dereferenceable(128) %0) #0 comdat align 2 {
  %2 = alloca ptr, align 8
  store ptr %0, ptr %2, align 8
  %3 = load ptr, ptr %2, align 8
  %4 = getelementptr inbounds nuw %"class.llvm::objcarc::PtrState", ptr %3, i32 0, i32 4
  %5 = getelementptr inbounds nuw %"struct.llvm::objcarc::RRInfo", ptr %4, i32 0, i32 3
  %6 = load ptr, ptr %5, align 8
  %7 = icmp ne ptr %6, null
  ret i1 %7
}

; Function Attrs: mustprogress nounwind uwtable
define linkonce_odr hidden noundef i32 @_ZNK4llvm7objcarc8PtrState6GetSeqEv(ptr noundef nonnull align 8 dereferenceable(128) %0) #0 comdat align 2 {
  %2 = alloca ptr, align 8
  store ptr %0, ptr %2, align 8
  %3 = load ptr, ptr %2, align 8
  %4 = getelementptr inbounds nuw %"class.llvm::objcarc::PtrState", ptr %3, i32 0, i32 2
  %5 = load i8, ptr %4, align 2
  %6 = zext i8 %5 to i32
  ret i32 %6
}

; Function Attrs: mustprogress nounwind uwtable
define dso_local void @_ZN4llvm7objcarc8PtrState24SetKnownPositiveRefCountEv(ptr noundef nonnull align 8 dereferenceable(128) %0) #0 align 2 {
  %2 = alloca ptr, align 8
  store ptr %0, ptr %2, align 8
  %3 = load ptr, ptr %2, align 8
  br label %4

4:                                                ; preds = %1
  br label %5

5:                                                ; preds = %4
  %6 = getelementptr inbounds nuw %"class.llvm::objcarc::PtrState", ptr %3, i32 0, i32 0
  store i8 1, ptr %6, align 8
  ret void
}

; Function Attrs: mustprogress nounwind uwtable
define dso_local noundef zeroext i1 @_ZN4llvm7objcarc16BottomUpPtrState15MatchWithRetainEv(ptr noundef nonnull align 8 dereferenceable(128) %0) #0 align 2 {
  %2 = alloca i1, align 1
  %3 = alloca ptr, align 8
  %4 = alloca i32, align 4
  store ptr %0, ptr %3, align 8
  %5 = load ptr, ptr %3, align 8
  call void @_ZN4llvm7objcarc8PtrState24SetKnownPositiveRefCountEv(ptr noundef nonnull align 8 dereferenceable(128) %5)
  %6 = call noundef i32 @_ZNK4llvm7objcarc8PtrState6GetSeqEv(ptr noundef nonnull align 8 dereferenceable(128) %5)
  store i32 %6, ptr %4, align 4
  %7 = load i32, ptr %4, align 4
  switch i32 %7, label %18 [
    i32 4, label %8
    i32 5, label %8
    i32 3, label %8
    i32 2, label %15
    i32 0, label %16
    i32 1, label %17
  ]

8:                                                ; preds = %1, %1, %1
  %9 = load i32, ptr %4, align 4
  %10 = icmp ne i32 %9, 3
  br i1 %10, label %13, label %11

11:                                               ; preds = %8
  %12 = call noundef zeroext i1 @_ZNK4llvm7objcarc8PtrState27IsTrackingImpreciseReleasesEv(ptr noundef nonnull align 8 dereferenceable(128) %5)
  br i1 %12, label %13, label %14

13:                                               ; preds = %11, %8
  call void @_ZN4llvm7objcarc8PtrState21ClearReverseInsertPtsEv(ptr noundef nonnull align 8 dereferenceable(128) %5)
  br label %14

14:                                               ; preds = %13, %11
  br label %15

15:                                               ; preds = %14, %1
  store i1 true, ptr %2, align 1
  br label %19

16:                                               ; preds = %1
  store i1 false, ptr %2, align 1
  br label %19

17:                                               ; preds = %1
  unreachable

18:                                               ; preds = %1
  unreachable

19:                                               ; preds = %16, %15
  %20 = load i1, ptr %2, align 1
  ret i1 %20
}