; Function Attrs: mustprogress nounwind uwtable
define dso_local noundef zeroext i1 @_ZN4llvm7objcarc16BottomUpPtrState15MatchWithRetainEv(ptr noundef nonnull align 8 dereferenceable(128) initializes((0, 1)) %0) local_unnamed_addr #0 align 2 {
  store i8 1, ptr %0, align 8
  %2 = getelementptr inbounds nuw i8, ptr %0, i64 2
  %3 = load i8, ptr %2, align 2
  switch i8 %3, label %32 [
    i8 0, label %31
    i8 2, label %_ZN4llvm7objcarc8PtrState21ClearReverseInsertPtsEv.exit
    i8 3, label %4
    i8 4, label %7
    i8 5, label %7
  ]

4:                                                ; preds = %1
  %5 = getelementptr inbounds nuw i8, ptr %0, i64 16
  %6 = load ptr, ptr %5, align 8
  %.not = icmp eq ptr %6, null
  br i1 %.not, label %_ZN4llvm7objcarc8PtrState21ClearReverseInsertPtsEv.exit, label %7

7:                                                ; preds = %1, %1, %4
  %8 = getelementptr inbounds nuw i8, ptr %0, i64 72
  %9 = getelementptr inbounds nuw i8, ptr %0, i64 80
  %10 = load ptr, ptr %9, align 8
  %11 = load ptr, ptr %8, align 8
  %12 = icmp eq ptr %10, %11
  br i1 %12, label %28, label %13

13:                                               ; preds = %7
  %14 = getelementptr inbounds nuw i8, ptr %0, i64 92
  %15 = load i32, ptr %14, align 4
  %16 = getelementptr inbounds nuw i8, ptr %0, i64 96
  %17 = load i32, ptr %16, align 8
  %18 = sub i32 %15, %17
  %19 = shl i32 %18, 2
  %20 = getelementptr inbounds nuw i8, ptr %0, i64 88
  %21 = load i32, ptr %20, align 8
  %22 = icmp ult i32 %19, %21
  %23 = icmp ugt i32 %21, 32
  %or.cond.i.i = and i1 %23, %22
  br i1 %or.cond.i.i, label %24, label %25

24:                                               ; preds = %13
  tail call void @_ZN4llvm19SmallPtrSetImplBase16shrink_and_clearEv(ptr noundef nonnull align 8 dereferenceable(28) %8) #7
  br label %_ZN4llvm7objcarc8PtrState21ClearReverseInsertPtsEv.exit

25:                                               ; preds = %13
  %26 = zext i32 %21 to i64
  %27 = shl nuw nsw i64 %26, 3
  tail call void @llvm.memset.p0.i64(ptr align 8 %10, i8 -1, i64 %27, i1 false)
  br label %28

28:                                               ; preds = %25, %7
  %29 = getelementptr inbounds nuw i8, ptr %0, i64 92
  store i32 0, ptr %29, align 4
  %30 = getelementptr inbounds nuw i8, ptr %0, i64 96
  store i32 0, ptr %30, align 8
  br label %_ZN4llvm7objcarc8PtrState21ClearReverseInsertPtsEv.exit

31:                                               ; preds = %1
  br label %_ZN4llvm7objcarc8PtrState21ClearReverseInsertPtsEv.exit

32:                                               ; preds = %1
  unreachable

_ZN4llvm7objcarc8PtrState21ClearReverseInsertPtsEv.exit: ; preds = %28, %24, %4, %1, %31
  %.0 = phi i1 [ false, %31 ], [ true, %1 ], [ true, %4 ], [ true, %24 ], [ true, %28 ]
  ret i1 %.0
}